	.text
	.file	"hello.cpp"
	.file	0 "/mnt/c/Users/Basharin/Desktop/cpp-course-2526/moderncpp-course-private/lec-01/compilation-example" "hello.cpp"
	.file	1 "/usr/bin/../lib/gcc/x86_64-linux-gnu/10/../../../../include/c++/10" "iostream"
	.section	.text.startup,"ax",@progbits
	.p2align	4, 0x90                         # -- Begin function __cxx_global_var_init
	.type	__cxx_global_var_init,@function
__cxx_global_var_init:                  # @__cxx_global_var_init
.Lfunc_begin0:
	.loc	0 0 0                           # hello.cpp:0:0
	.cfi_startproc
# %bb.0:
	pushq	%rbp
	.cfi_def_cfa_offset 16
	.cfi_offset %rbp, -16
	movq	%rsp, %rbp
	.cfi_def_cfa_register %rbp
.Ltmp0:
	.loc	1 74 25 prologue_end            # /usr/bin/../lib/gcc/x86_64-linux-gnu/10/../../../../include/c++/10/iostream:74:25
	leaq	_ZStL8__ioinit(%rip), %rdi
	callq	_ZNSt8ios_base4InitC1Ev@PLT
	.loc	0 0 0 is_stmt 0                 # hello.cpp:0:0
	movq	_ZNSt8ios_base4InitD1Ev@GOTPCREL(%rip), %rdi
	leaq	_ZStL8__ioinit(%rip), %rsi
	leaq	__dso_handle(%rip), %rdx
	callq	__cxa_atexit@PLT
	.loc	1 74 25 epilogue_begin          # /usr/bin/../lib/gcc/x86_64-linux-gnu/10/../../../../include/c++/10/iostream:74:25
	popq	%rbp
	.cfi_def_cfa %rsp, 8
	retq
.Ltmp1:
.Lfunc_end0:
	.size	__cxx_global_var_init, .Lfunc_end0-__cxx_global_var_init
	.cfi_endproc
                                        # -- End function
	.p2align	4, 0x90                         # -- Begin function __cxx_global_var_init.1
	.type	__cxx_global_var_init.1,@function
__cxx_global_var_init.1:                # @__cxx_global_var_init.1
.Lfunc_begin1:
	.loc	0 0 0 is_stmt 1                 # hello.cpp:0:0
	.cfi_startproc
# %bb.0:
	pushq	%rbp
	.cfi_def_cfa_offset 16
	.cfi_offset %rbp, -16
	movq	%rsp, %rbp
	.cfi_def_cfa_register %rbp
.Ltmp2:
	.loc	0 8 20 prologue_end             # hello.cpp:8:20
	movl	_ZL20private_access_token(%rip), %eax
	.loc	0 0 0 is_stmt 0                 # hello.cpp:0:0
	movl	%eax, access_token(%rip)
	.loc	0 8 20 epilogue_begin           # hello.cpp:8:20
	popq	%rbp
	.cfi_def_cfa %rsp, 8
	retq
.Ltmp3:
.Lfunc_end1:
	.size	__cxx_global_var_init.1, .Lfunc_end1-__cxx_global_var_init.1
	.cfi_endproc
                                        # -- End function
	.text
	.globl	_Z5helloi                       # -- Begin function _Z5helloi
	.p2align	4, 0x90
	.type	_Z5helloi,@function
_Z5helloi:                              # @_Z5helloi
.Lfunc_begin2:
	.loc	0 10 0 is_stmt 1                # hello.cpp:10:0
	.cfi_startproc
# %bb.0:
	pushq	%rbp
	.cfi_def_cfa_offset 16
	.cfi_offset %rbp, -16
	movq	%rsp, %rbp
	.cfi_def_cfa_register %rbp
	subq	$16, %rsp
	movl	%edi, -4(%rbp)
.Ltmp4:
	.loc	0 11 9 prologue_end             # hello.cpp:11:9
	movl	_ZL20private_access_token(%rip), %eax
	.loc	0 11 30 is_stmt 0               # hello.cpp:11:30
	cmpl	access_token(%rip), %eax
.Ltmp5:
	.loc	0 11 9                          # hello.cpp:11:9
	jne	.LBB2_2
# %bb.1:
.Ltmp6:
	.loc	0 12 19 is_stmt 1               # hello.cpp:12:19
	movq	_ZSt4cout@GOTPCREL(%rip), %rdi
	leaq	.L.str(%rip), %rsi
	callq	_ZStlsISt11char_traitsIcEERSt13basic_ostreamIcT_ES5_PKc@PLT
	.loc	0 13 5                          # hello.cpp:13:5
	jmp	.LBB2_3
.Ltmp7:
.LBB2_2:
	.loc	0 14 19                         # hello.cpp:14:19
	movq	_ZSt4cerr@GOTPCREL(%rip), %rdi
	leaq	.L.str.2(%rip), %rsi
	callq	_ZStlsISt11char_traitsIcEERSt13basic_ostreamIcT_ES5_PKc@PLT
.Ltmp8:
.LBB2_3:
	.loc	0 16 1 epilogue_begin           # hello.cpp:16:1
	addq	$16, %rsp
	popq	%rbp
	.cfi_def_cfa %rsp, 8
	retq
.Ltmp9:
.Lfunc_end2:
	.size	_Z5helloi, .Lfunc_end2-_Z5helloi
	.cfi_endproc
                                        # -- End function
	.section	.text.startup,"ax",@progbits
	.p2align	4, 0x90                         # -- Begin function _GLOBAL__sub_I_hello.cpp
	.type	_GLOBAL__sub_I_hello.cpp,@function
_GLOBAL__sub_I_hello.cpp:               # @_GLOBAL__sub_I_hello.cpp
.Lfunc_begin3:
	.loc	0 0 0                           # hello.cpp:0:0
	.cfi_startproc
# %bb.0:
	pushq	%rbp
	.cfi_def_cfa_offset 16
	.cfi_offset %rbp, -16
	movq	%rsp, %rbp
	.cfi_def_cfa_register %rbp
.Ltmp10:
	callq	__cxx_global_var_init
	callq	__cxx_global_var_init.1
	popq	%rbp
	.cfi_def_cfa %rsp, 8
	retq
.Ltmp11:
.Lfunc_end3:
	.size	_GLOBAL__sub_I_hello.cpp, .Lfunc_end3-_GLOBAL__sub_I_hello.cpp
	.cfi_endproc
                                        # -- End function
	.type	_ZStL8__ioinit,@object          # @_ZStL8__ioinit
	.local	_ZStL8__ioinit
	.comm	_ZStL8__ioinit,1,1
	.hidden	__dso_handle
	.type	access_token,@object            # @access_token
	.bss
	.globl	access_token
	.p2align	2, 0x0
access_token:
	.long	0                               # 0x0
	.size	access_token, 4

	.type	_ZL20private_access_token,@object # @_ZL20private_access_token
	.data
	.p2align	2, 0x0
_ZL20private_access_token:
	.long	42                              # 0x2a
	.size	_ZL20private_access_token, 4

	.type	.L.str,@object                  # @.str
	.section	.rodata.str1.1,"aMS",@progbits,1
.L.str:
	.asciz	"hello, world!"
	.size	.L.str, 14

	.type	.L.str.2,@object                # @.str.2
.L.str.2:
	.asciz	"Access denied!"
	.size	.L.str.2, 15

	.section	.init_array,"aw",@init_array
	.p2align	3, 0x0
	.quad	_GLOBAL__sub_I_hello.cpp
	.file	2 "/usr/include/x86_64-linux-gnu/bits/types" "__mbstate_t.h"
	.file	3 "/usr/include/x86_64-linux-gnu/bits/types" "mbstate_t.h"
	.file	4 "/usr/bin/../lib/gcc/x86_64-linux-gnu/10/../../../../include/c++/10" "cwchar"
	.file	5 "/usr/include/x86_64-linux-gnu/bits/types" "wint_t.h"
	.file	6 "/usr/include" "wchar.h"
	.file	7 "/usr/include/x86_64-linux-gnu/bits/types" "__FILE.h"
	.file	8 "/usr/lib/llvm-18/lib/clang/18/include" "__stddef_size_t.h"
	.file	9 "/usr/bin/../lib/gcc/x86_64-linux-gnu/10/../../../../include/c++/10/bits" "exception_ptr.h"
	.file	10 "/usr/bin/../lib/gcc/x86_64-linux-gnu/10/../../../../include/c++/10/debug" "debug.h"
	.file	11 "/usr/include/x86_64-linux-gnu/bits" "types.h"
	.file	12 "/usr/include/x86_64-linux-gnu/bits" "stdint-intn.h"
	.file	13 "/usr/bin/../lib/gcc/x86_64-linux-gnu/10/../../../../include/c++/10" "cstdint"
	.file	14 "/usr/include" "stdint.h"
	.file	15 "/usr/include/x86_64-linux-gnu/bits" "stdint-uintn.h"
	.file	16 "/usr/bin/../lib/gcc/x86_64-linux-gnu/10/../../../../include/c++/10" "clocale"
	.file	17 "/usr/include" "locale.h"
	.file	18 "/usr/include" "ctype.h"
	.file	19 "/usr/bin/../lib/gcc/x86_64-linux-gnu/10/../../../../include/c++/10" "cctype"
	.file	20 "/usr/include" "stdlib.h"
	.file	21 "/usr/bin/../lib/gcc/x86_64-linux-gnu/10/../../../../include/c++/10/bits" "std_abs.h"
	.file	22 "/usr/bin/../lib/gcc/x86_64-linux-gnu/10/../../../../include/c++/10" "cstdlib"
	.file	23 "/usr/include/x86_64-linux-gnu/bits/types" "FILE.h"
	.file	24 "/usr/bin/../lib/gcc/x86_64-linux-gnu/10/../../../../include/c++/10" "cstdio"
	.file	25 "/usr/include/x86_64-linux-gnu/bits/types" "__fpos_t.h"
	.file	26 "/usr/include" "stdio.h"
	.file	27 "/usr/include" "wctype.h"
	.file	28 "/usr/bin/../lib/gcc/x86_64-linux-gnu/10/../../../../include/c++/10" "cwctype"
	.file	29 "/usr/include/x86_64-linux-gnu/bits" "wctype-wchar.h"
	.section	".note.GNU-stack","",@progbits
	.addrsig
	.addrsig_sym __cxx_global_var_init
	.addrsig_sym __cxa_atexit
	.addrsig_sym __cxx_global_var_init.1
	.addrsig_sym _ZStlsISt11char_traitsIcEERSt13basic_ostreamIcT_ES5_PKc
	.addrsig_sym _GLOBAL__sub_I_hello.cpp
	.addrsig_sym _ZStL8__ioinit
	.addrsig_sym __dso_handle
	.addrsig_sym access_token
	.addrsig_sym _ZL20private_access_token
	.addrsig_sym _ZSt4cout
	.addrsig_sym _ZSt4cerr